target datalayout = "e-m:e-p270:32:32-p271:32:32-p272:64:64-i64:64-i128:128-f80:128-n8:16:32:64-S128"
target triple = "x86_64-pc-linux-gnu"

%"class.google::protobuf::internal::LogMessage" = type { i32, ptr, i32, %"class.std::__cxx11::basic_string" }
%"class.std::__cxx11::basic_string" = type { %"struct.std::__cxx11::basic_string<char>::_Alloc_hider", i64, %union.anon }
%"struct.std::__cxx11::basic_string<char>::_Alloc_hider" = type { ptr }
%union.anon = type { i64, [8 x i8] }
%"class.google::protobuf::internal::LogFinisher" = type { i8 }
%"class.google::protobuf::io::ZeroCopyOutputStream" = type { ptr }
%"class.google::protobuf::io::StringOutputStream" = type { %"class.google::protobuf::io::ZeroCopyOutputStream", ptr }

@.str = private unnamed_addr constant [56 x i8] c"third_party/protobuf-lite/zero_copy_stream_impl_lite.cc\00", align 1
@.str.4 = private unnamed_addr constant [31 x i8] c"CHECK failed: (count) >= (0): \00", align 1
@.str.5 = private unnamed_addr constant [32 x i8] c"CHECK failed: target_ != NULL: \00", align 1
@.str.6 = private unnamed_addr constant [45 x i8] c"CHECK failed: (count) <= (target_->size()): \00", align 1

; Function Attrs: mustprogress uwtable
define void @_ZN6google8protobuf2io18StringOutputStream6BackUpEi(ptr noundef nonnull align 8 dereferenceable(16) %0, i32 noundef %1) unnamed_addr #4 align 2 personality ptr @__gxx_personality_v0 {
  %3 = alloca ptr, align 8
  %4 = alloca i32, align 4
  %5 = alloca %"class.google::protobuf::internal::LogMessage", align 8
  %6 = alloca i1, align 1
  %7 = alloca ptr, align 8
  %8 = alloca i32, align 4
  %9 = alloca %"class.google::protobuf::internal::LogFinisher", align 1
  %10 = alloca %"class.google::protobuf::internal::LogMessage", align 8
  %11 = alloca i1, align 1
  %12 = alloca %"class.google::protobuf::internal::LogFinisher", align 1
  %13 = alloca %"class.google::protobuf::internal::LogMessage", align 8
  %14 = alloca i1, align 1
  %15 = alloca %"class.google::protobuf::internal::LogFinisher", align 1
  store ptr %0, ptr %3, align 8
  store i32 %1, ptr %4, align 4
  %16 = load ptr, ptr %3, align 8
  %17 = load i32, ptr %4, align 4
  %18 = icmp sge i32 %17, 0
  store i1 false, ptr %6, align 1
  br i1 %18, label %19, label %20

19:                                               ; preds = %2
  br label %24

20:                                               ; preds = %2
  call void @_ZN6google8protobuf8internal10LogMessageC1ENS0_8LogLevelEPKci(ptr noundef nonnull align 8 dereferenceable(56) %5, i32 noundef 3, ptr noundef @.str, i32 noundef 169)
  store i1 true, ptr %6, align 1
  %21 = invoke noundef nonnull align 8 dereferenceable(56) ptr @_ZN6google8protobuf8internal10LogMessagelsEPKc(ptr noundef nonnull align 8 dereferenceable(56) %5, ptr noundef @.str.4)
          to label %22 unwind label %63

22:                                               ; preds = %20
  invoke void @_ZN6google8protobuf8internal11LogFinisheraSERNS1_10LogMessageE(ptr noundef nonnull align 1 dereferenceable(1) %9, ptr noundef nonnull align 8 dereferenceable(56) %21)
          to label %23 unwind label %63

23:                                               ; preds = %22
  br label %24

24:                                               ; preds = %23, %19
  %25 = load i1, ptr %6, align 1
  br i1 %25, label %26, label %27

26:                                               ; preds = %24
  call void @_ZN6google8protobuf8internal10LogMessageD1Ev(ptr noundef nonnull align 8 dereferenceable(56) %5) #3
  br label %27

27:                                               ; preds = %26, %24
  %28 = getelementptr inbounds %"class.google::protobuf::io::StringOutputStream", ptr %16, i32 0, i32 1
  %29 = load ptr, ptr %28, align 8
  %30 = icmp ne ptr %29, null
  store i1 false, ptr %11, align 1
  br i1 %30, label %31, label %32

31:                                               ; preds = %27
  br label %36

32:                                               ; preds = %27
  call void @_ZN6google8protobuf8internal10LogMessageC1ENS0_8LogLevelEPKci(ptr noundef nonnull align 8 dereferenceable(56) %10, i32 noundef 3, ptr noundef @.str, i32 noundef 170)
  store i1 true, ptr %11, align 1
  %33 = invoke noundef nonnull align 8 dereferenceable(56) ptr @_ZN6google8protobuf8internal10LogMessagelsEPKc(ptr noundef nonnull align 8 dereferenceable(56) %10, ptr noundef @.str.5)
          to label %34 unwind label %70

34:                                               ; preds = %32
  invoke void @_ZN6google8protobuf8internal11LogFinisheraSERNS1_10LogMessageE(ptr noundef nonnull align 1 dereferenceable(1) %12, ptr noundef nonnull align 8 dereferenceable(56) %33)
          to label %35 unwind label %70

35:                                               ; preds = %34
  br label %36

36:                                               ; preds = %35, %31
  %37 = load i1, ptr %11, align 1
  br i1 %37, label %38, label %39

38:                                               ; preds = %36
  call void @_ZN6google8protobuf8internal10LogMessageD1Ev(ptr noundef nonnull align 8 dereferenceable(56) %10) #3
  br label %39

39:                                               ; preds = %38, %36
  %40 = load i32, ptr %4, align 4
  %41 = sext i32 %40 to i64
  %42 = getelementptr inbounds %"class.google::protobuf::io::StringOutputStream", ptr %16, i32 0, i32 1
  %43 = load ptr, ptr %42, align 8
  %44 = call noundef i64 @_ZNKSt7__cxx1112basic_stringIcSt11char_traitsIcESaIcEE4sizeEv(ptr noundef nonnull align 8 dereferenceable(32) %43) #3
  %45 = icmp ule i64 %41, %44
  store i1 false, ptr %14, align 1
  br i1 %45, label %46, label %47

46:                                               ; preds = %39
  br label %51

47:                                               ; preds = %39
  call void @_ZN6google8protobuf8internal10LogMessageC1ENS0_8LogLevelEPKci(ptr noundef nonnull align 8 dereferenceable(56) %13, i32 noundef 3, ptr noundef @.str, i32 noundef 171)
  store i1 true, ptr %14, align 1
  %48 = invoke noundef nonnull align 8 dereferenceable(56) ptr @_ZN6google8protobuf8internal10LogMessagelsEPKc(ptr noundef nonnull align 8 dereferenceable(56) %13, ptr noundef @.str.6)
          to label %49 unwind label %77

49:                                               ; preds = %47
  invoke void @_ZN6google8protobuf8internal11LogFinisheraSERNS1_10LogMessageE(ptr noundef nonnull align 1 dereferenceable(1) %15, ptr noundef nonnull align 8 dereferenceable(56) %48)
          to label %50 unwind label %77

50:                                               ; preds = %49
  br label %51

51:                                               ; preds = %50, %46
  %52 = load i1, ptr %14, align 1
  br i1 %52, label %53, label %54

53:                                               ; preds = %51
  call void @_ZN6google8protobuf8internal10LogMessageD1Ev(ptr noundef nonnull align 8 dereferenceable(56) %13) #3
  br label %54

54:                                               ; preds = %53, %51
  %55 = getelementptr inbounds %"class.google::protobuf::io::StringOutputStream", ptr %16, i32 0, i32 1
  %56 = load ptr, ptr %55, align 8
  %57 = getelementptr inbounds %"class.google::protobuf::io::StringOutputStream", ptr %16, i32 0, i32 1
  %58 = load ptr, ptr %57, align 8
  %59 = call noundef i64 @_ZNKSt7__cxx1112basic_stringIcSt11char_traitsIcESaIcEE4sizeEv(ptr noundef nonnull align 8 dereferenceable(32) %58) #3
  %60 = load i32, ptr %4, align 4
  %61 = sext i32 %60 to i64
  %62 = sub i64 %59, %61
  call void @_ZNSt7__cxx1112basic_stringIcSt11char_traitsIcESaIcEE6resizeEm(ptr noundef nonnull align 8 dereferenceable(32) %56, i64 noundef %62)
  ret void

63:                                               ; preds = %22, %20
  %64 = landingpad { ptr, i32 }
          cleanup
  %65 = extractvalue { ptr, i32 } %64, 0
  store ptr %65, ptr %7, align 8
  %66 = extractvalue { ptr, i32 } %64, 1
  store i32 %66, ptr %8, align 4
  %67 = load i1, ptr %6, align 1
  br i1 %67, label %68, label %69

68:                                               ; preds = %63
  call void @_ZN6google8protobuf8internal10LogMessageD1Ev(ptr noundef nonnull align 8 dereferenceable(56) %5) #3
  br label %69

69:                                               ; preds = %68, %63
  br label %84

70:                                               ; preds = %34, %32
  %71 = landingpad { ptr, i32 }
          cleanup
  %72 = extractvalue { ptr, i32 } %71, 0
  store ptr %72, ptr %7, align 8
  %73 = extractvalue { ptr, i32 } %71, 1
  store i32 %73, ptr %8, align 4
  %74 = load i1, ptr %11, align 1
  br i1 %74, label %75, label %76

75:                                               ; preds = %70
  call void @_ZN6google8protobuf8internal10LogMessageD1Ev(ptr noundef nonnull align 8 dereferenceable(56) %10) #3
  br label %76

76:                                               ; preds = %75, %70
  br label %84

77:                                               ; preds = %49, %47
  %78 = landingpad { ptr, i32 }
          cleanup
  %79 = extractvalue { ptr, i32 } %78, 0
  store ptr %79, ptr %7, align 8
  %80 = extractvalue { ptr, i32 } %78, 1
  store i32 %80, ptr %8, align 4
  %81 = load i1, ptr %14, align 1
  br i1 %81, label %82, label %83

82:                                               ; preds = %77
  call void @_ZN6google8protobuf8internal10LogMessageD1Ev(ptr noundef nonnull align 8 dereferenceable(56) %13) #3
  br label %83

83:                                               ; preds = %82, %77
  br label %84

84:                                               ; preds = %83, %76, %69
  %85 = load ptr, ptr %7, align 8
  %86 = load i32, ptr %8, align 4
  %87 = insertvalue { ptr, i32 } poison, ptr %85, 0
  %88 = insertvalue { ptr, i32 } %87, i32 %86, 1
  resume { ptr, i32 } %88
}