; Function Attrs: mustprogress uwtable
define void @_ZN6google8protobuf2io18StringOutputStream6BackUpEi(ptr nocapture noundef nonnull readonly align 8 dereferenceable(16) %0, i32 noundef %1) unnamed_addr #5 align 2 personality ptr @__gxx_personality_v0 {
  %3 = alloca %"class.google::protobuf::internal::LogMessage", align 8
  %4 = alloca %"class.google::protobuf::internal::LogFinisher", align 1
  %5 = alloca %"class.google::protobuf::internal::LogMessage", align 8
  %6 = alloca %"class.google::protobuf::internal::LogFinisher", align 1
  %7 = alloca %"class.google::protobuf::internal::LogMessage", align 8
  %8 = alloca %"class.google::protobuf::internal::LogFinisher", align 1
  %9 = icmp slt i32 %1, 0
  br i1 %9, label %10, label %.critedge

10:                                               ; preds = %2
  call void @_ZN6google8protobuf8internal10LogMessageC1ENS0_8LogLevelEPKci(ptr noundef nonnull align 8 dereferenceable(56) %3, i32 noundef 3, ptr noundef nonnull @.str, i32 noundef 169)
  %11 = invoke noundef nonnull align 8 dereferenceable(56) ptr @_ZN6google8protobuf8internal10LogMessagelsEPKc(ptr noundef nonnull align 8 dereferenceable(56) %3, ptr noundef nonnull @.str.4)
          to label %12 unwind label %30

12:                                               ; preds = %10
  invoke void @_ZN6google8protobuf8internal11LogFinisheraSERNS1_10LogMessageE(ptr noundef nonnull align 1 dereferenceable(1) %4, ptr noundef nonnull align 8 dereferenceable(56) %11)
          to label %13 unwind label %30

13:                                               ; preds = %12
  call void @_ZN6google8protobuf8internal10LogMessageD1Ev(ptr noundef nonnull align 8 dereferenceable(56) %3) #16
  br label %.critedge

.critedge:                                        ; preds = %2, %13
  %14 = getelementptr inbounds i8, ptr %0, i64 8
  %15 = load ptr, ptr %14, align 8
  %.not = icmp eq ptr %15, null
  br i1 %.not, label %16, label %.critedge18

16:                                               ; preds = %.critedge
  call void @_ZN6google8protobuf8internal10LogMessageC1ENS0_8LogLevelEPKci(ptr noundef nonnull align 8 dereferenceable(56) %5, i32 noundef 3, ptr noundef nonnull @.str, i32 noundef 170)
  %17 = invoke noundef nonnull align 8 dereferenceable(56) ptr @_ZN6google8protobuf8internal10LogMessagelsEPKc(ptr noundef nonnull align 8 dereferenceable(56) %5, ptr noundef nonnull @.str.5)
          to label %18 unwind label %32

18:                                               ; preds = %16
  invoke void @_ZN6google8protobuf8internal11LogFinisheraSERNS1_10LogMessageE(ptr noundef nonnull align 1 dereferenceable(1) %6, ptr noundef nonnull align 8 dereferenceable(56) %17)
          to label %19 unwind label %32

19:                                               ; preds = %18
  call void @_ZN6google8protobuf8internal10LogMessageD1Ev(ptr noundef nonnull align 8 dereferenceable(56) %5) #16
  %.pre = load ptr, ptr %14, align 8
  br label %.critedge18

.critedge18:                                      ; preds = %.critedge, %19
  %20 = phi ptr [ %15, %.critedge ], [ %.pre, %19 ]
  %21 = sext i32 %1 to i64
  %22 = call noundef i64 @_ZNKSt7__cxx1112basic_stringIcSt11char_traitsIcESaIcEE4sizeEv(ptr noundef nonnull align 8 dereferenceable(32) %20) #16
  %.not15 = icmp ult i64 %22, %21
  br i1 %.not15, label %23, label %.critedge20

23:                                               ; preds = %.critedge18
  call void @_ZN6google8protobuf8internal10LogMessageC1ENS0_8LogLevelEPKci(ptr noundef nonnull align 8 dereferenceable(56) %7, i32 noundef 3, ptr noundef nonnull @.str, i32 noundef 171)
  %24 = invoke noundef nonnull align 8 dereferenceable(56) ptr @_ZN6google8protobuf8internal10LogMessagelsEPKc(ptr noundef nonnull align 8 dereferenceable(56) %7, ptr noundef nonnull @.str.6)
          to label %25 unwind label %34

25:                                               ; preds = %23
  invoke void @_ZN6google8protobuf8internal11LogFinisheraSERNS1_10LogMessageE(ptr noundef nonnull align 1 dereferenceable(1) %8, ptr noundef nonnull align 8 dereferenceable(56) %24)
          to label %26 unwind label %34

26:                                               ; preds = %25
  call void @_ZN6google8protobuf8internal10LogMessageD1Ev(ptr noundef nonnull align 8 dereferenceable(56) %7) #16
  br label %.critedge20

.critedge20:                                      ; preds = %.critedge18, %26
  %27 = load ptr, ptr %14, align 8
  %28 = call noundef i64 @_ZNKSt7__cxx1112basic_stringIcSt11char_traitsIcESaIcEE4sizeEv(ptr noundef nonnull align 8 dereferenceable(32) %27) #16
  %29 = sub i64 %28, %21
  call void @_ZNSt7__cxx1112basic_stringIcSt11char_traitsIcESaIcEE6resizeEm(ptr noundef nonnull align 8 dereferenceable(32) %27, i64 noundef %29)
  ret void

30:                                               ; preds = %12, %10
  %31 = landingpad { ptr, i32 }
          cleanup
  br label %36

32:                                               ; preds = %18, %16
  %33 = landingpad { ptr, i32 }
          cleanup
  br label %36

34:                                               ; preds = %25, %23
  %35 = landingpad { ptr, i32 }
          cleanup
  br label %36

36:                                               ; preds = %34, %32, %30
  %.sink = phi ptr [ %7, %34 ], [ %5, %32 ], [ %3, %30 ]
  %.pn = phi { ptr, i32 } [ %35, %34 ], [ %33, %32 ], [ %31, %30 ]
  call void @_ZN6google8protobuf8internal10LogMessageD1Ev(ptr noundef nonnull align 8 dereferenceable(56) %.sink) #16
  resume { ptr, i32 } %.pn
}